(dp1
S'mx140-gobernadores'
p2
V641480957422256129
p3
sS'mx140-pri'
p4
V641573434829467648
p5
sS'mx140-prd'
p6
V641471287555022849
p7
sS'mx140-ejecutivo'
p8
V641590916482887680
p9
sS'mx140-pan'
p10
V641587458484776962
p11
sS'mx140-opinion'
p12
V641591340669763584
p13
sS'mx140-senadores'
p14
V641591201427165185
p15
sS'mx140-diputados'
p16
V641591797534224384
p17
s.